target datalayout = "e-m:e-p270:32:32-p271:32:32-p272:64:64-i64:64-i128:128-f80:128-n8:16:32:64-S128"
target triple = "x86_64-pc-linux-gnu"

@.str.1 = private unnamed_addr constant [32 x i8] c"../openssl/crypto/pem/pem_lib.c\00", align 1
@__func__.PEM_ASN1_write = private unnamed_addr constant [15 x i8] c"PEM_ASN1_write\00", align 1

; Function Attrs: nounwind uwtable
define i32 @PEM_ASN1_write_bio(ptr noundef %0, ptr noundef %1, ptr noundef %2, ptr noundef %3, ptr noundef %4, ptr noundef %5, i32 noundef %6, ptr noundef %7, ptr noundef %8) #0 {
  %10 = alloca ptr, align 8
  %11 = alloca ptr, align 8
  %12 = alloca ptr, align 8
  %13 = alloca ptr, align 8
  %14 = alloca ptr, align 8
  %15 = alloca ptr, align 8
  %16 = alloca i32, align 4
  %17 = alloca ptr, align 8
  %18 = alloca ptr, align 8
  store ptr %0, ptr %10, align 8, !tbaa !10
  store ptr %1, ptr %11, align 8, !tbaa !3
  store ptr %2, ptr %12, align 8, !tbaa !18
  store ptr %3, ptr %13, align 8, !tbaa !10
  store ptr %4, ptr %14, align 8, !tbaa !25
  store ptr %5, ptr %15, align 8, !tbaa !3
  store i32 %6, ptr %16, align 4, !tbaa !8
  store ptr %7, ptr %17, align 8, !tbaa !10
  store ptr %8, ptr %18, align 8, !tbaa !10
  %19 = load ptr, ptr %10, align 8, !tbaa !10
  %20 = load ptr, ptr %11, align 8, !tbaa !3
  %21 = load ptr, ptr %12, align 8, !tbaa !18
  %22 = load ptr, ptr %13, align 8, !tbaa !10
  %23 = load ptr, ptr %14, align 8, !tbaa !25
  %24 = load ptr, ptr %15, align 8, !tbaa !3
  %25 = load i32, ptr %16, align 4, !tbaa !8
  %26 = load ptr, ptr %17, align 8, !tbaa !10
  %27 = load ptr, ptr %18, align 8, !tbaa !10
  %28 = call i32 @PEM_ASN1_write_bio_internal(ptr noundef %19, ptr noundef null, ptr noundef null, ptr noundef %20, ptr noundef %21, ptr noundef %22, ptr noundef %23, ptr noundef %24, i32 noundef %25, ptr noundef %26, ptr noundef %27)
  ret i32 %28
}

; Function Attrs: nounwind uwtable
define i32 @PEM_ASN1_write(ptr noundef %0, ptr noundef %1, ptr noundef %2, ptr noundef %3, ptr noundef %4, ptr noundef %5, i32 noundef %6, ptr noundef %7, ptr noundef %8) #0 {
  %10 = alloca i32, align 4
  %11 = alloca ptr, align 8
  %12 = alloca ptr, align 8
  %13 = alloca ptr, align 8
  %14 = alloca ptr, align 8
  %15 = alloca ptr, align 8
  %16 = alloca ptr, align 8
  %17 = alloca i32, align 4
  %18 = alloca ptr, align 8
  %19 = alloca ptr, align 8
  %20 = alloca ptr, align 8
  %21 = alloca i32, align 4
  %22 = alloca i32, align 4
  store ptr %0, ptr %11, align 8, !tbaa !10
  store ptr %1, ptr %12, align 8, !tbaa !3
  store ptr %2, ptr %13, align 8, !tbaa !16
  store ptr %3, ptr %14, align 8, !tbaa !10
  store ptr %4, ptr %15, align 8, !tbaa !25
  store ptr %5, ptr %16, align 8, !tbaa !3
  store i32 %6, ptr %17, align 4, !tbaa !8
  store ptr %7, ptr %18, align 8, !tbaa !10
  store ptr %8, ptr %19, align 8, !tbaa !10
  call void @llvm.lifetime.start.p0(i64 8, ptr %20) #8
  call void @llvm.lifetime.start.p0(i64 4, ptr %21) #8
  %23 = call ptr @BIO_s_file()
  %24 = call ptr @BIO_new(ptr noundef %23)
  store ptr %24, ptr %20, align 8, !tbaa !18
  %25 = icmp eq ptr %24, null
  br i1 %25, label %26, label %27

26:                                               ; preds = %9
  call void @ERR_new()
  call void @ERR_set_debug(ptr noundef @.str.1, i32 noundef 309, ptr noundef @__func__.PEM_ASN1_write)
  call void (i32, i32, ptr, ...) @ERR_set_error(i32 noundef 9, i32 noundef 524295, ptr noundef null)
  store i32 0, ptr %10, align 4
  store i32 1, ptr %22, align 4
  br label %44

27:                                               ; preds = %9
  %28 = load ptr, ptr %20, align 8, !tbaa !18
  %29 = load ptr, ptr %13, align 8, !tbaa !16
  %30 = call i64 @BIO_ctrl(ptr noundef %28, i32 noundef 106, i64 noundef 0, ptr noundef %29)
  %31 = load ptr, ptr %11, align 8, !tbaa !10
  %32 = load ptr, ptr %12, align 8, !tbaa !3
  %33 = load ptr, ptr %20, align 8, !tbaa !18
  %34 = load ptr, ptr %14, align 8, !tbaa !10
  %35 = load ptr, ptr %15, align 8, !tbaa !25
  %36 = load ptr, ptr %16, align 8, !tbaa !3
  %37 = load i32, ptr %17, align 4, !tbaa !8
  %38 = load ptr, ptr %18, align 8, !tbaa !10
  %39 = load ptr, ptr %19, align 8, !tbaa !10
  %40 = call i32 @PEM_ASN1_write_bio(ptr noundef %31, ptr noundef %32, ptr noundef %33, ptr noundef %34, ptr noundef %35, ptr noundef %36, i32 noundef %37, ptr noundef %38, ptr noundef %39)
  store i32 %40, ptr %21, align 4, !tbaa !8
  %41 = load ptr, ptr %20, align 8, !tbaa !18
  %42 = call i32 @BIO_free(ptr noundef %41)
  %43 = load i32, ptr %21, align 4, !tbaa !8
  store i32 %43, ptr %10, align 4
  store i32 1, ptr %22, align 4
  br label %44

44:                                               ; preds = %27, %26
  call void @llvm.lifetime.end.p0(i64 4, ptr %21) #8
  call void @llvm.lifetime.end.p0(i64 8, ptr %20) #8
  %45 = load i32, ptr %10, align 4
  ret i32 %45
}