; Function Attrs: nounwind uwtable
define range(i32 0, 2) i32 @PEM_ASN1_write(ptr noundef captures(address_is_null) %0, ptr noundef %1, ptr noundef %2, ptr noundef %3, ptr noundef %4, ptr noundef %5, i32 noundef %6, ptr noundef captures(address_is_null) %7, ptr noundef %8) local_unnamed_addr #0 {
  %10 = tail call ptr @BIO_s_file() #10
  %11 = tail call ptr @BIO_new(ptr noundef %10) #10
  %12 = icmp eq ptr %11, null
  br i1 %12, label %13, label %14

13:                                               ; preds = %9
  tail call void @ERR_new() #10
  tail call void @ERR_set_debug(ptr noundef nonnull @.str.1, i32 noundef 309, ptr noundef nonnull @__func__.PEM_ASN1_write) #10
  tail call void (i32, i32, ptr, ...) @ERR_set_error(i32 noundef 9, i32 noundef 524295, ptr noundef null) #10
  br label %18

14:                                               ; preds = %9
  %15 = tail call i64 @BIO_ctrl(ptr noundef nonnull %11, i32 noundef 106, i64 noundef 0, ptr noundef %2) #10
  %16 = tail call fastcc range(i32 0, 2) i32 @PEM_ASN1_write_bio_internal(ptr noundef %0, ptr noundef null, ptr noundef null, ptr noundef %1, ptr noundef nonnull %11, ptr noundef %3, ptr noundef %4, ptr noundef %5, i32 noundef %6, ptr noundef %7, ptr noundef %8)
  %17 = tail call i32 @BIO_free(ptr noundef nonnull %11) #10
  br label %18

18:                                               ; preds = %14, %13
  %.0 = phi i32 [ 0, %13 ], [ %16, %14 ]
  ret i32 %.0
}